; Function Attrs: mustprogress uwtable
define void @_ZN6google8protobuf8internal11SerialArena19CleanupListFallbackEv(ptr noundef nonnull readonly align 8 captures(none) dereferenceable(72) %0) local_unnamed_addr #6 align 2 {
  %2 = getelementptr inbounds nuw i8, ptr %0, i64 56
  %3 = load ptr, ptr %2, align 8, !tbaa !54
  %4 = getelementptr inbounds nuw i8, ptr %0, i64 24
  %5 = load ptr, ptr %4, align 8, !tbaa !53
  %6 = getelementptr inbounds nuw i8, ptr %5, i64 16
  %7 = ptrtoint ptr %3 to i64
  %8 = ptrtoint ptr %6 to i64
  %9 = sub i64 %7, %8
  %10 = ashr exact i64 %9, 4
  br label %11

11:                                               ; preds = %20, %1
  %.014 = phi ptr [ %5, %1 ], [ %13, %20 ]
  %.013 = phi i64 [ %10, %1 ], [ %21, %20 ]
  %.not19 = icmp eq i64 %.013, 0
  br i1 %.not19, label %._crit_edge, label %.lr.ph

._crit_edge:                                      ; preds = %.lr.ph, %11
  %12 = getelementptr inbounds nuw i8, ptr %.014, i64 8
  %13 = load ptr, ptr %12, align 8, !tbaa !55
  %14 = icmp eq ptr %13, null
  br i1 %14, label %22, label %20

.lr.ph:                                           ; preds = %11, %.lr.ph
  %.01220 = phi i64 [ %19, %.lr.ph ], [ %.013, %11 ]
  %15 = getelementptr %"struct.google::protobuf::internal::SerialArena::CleanupNode", ptr %.014, i64 %.01220
  %16 = getelementptr inbounds nuw i8, ptr %15, i64 8
  %17 = load ptr, ptr %16, align 8, !tbaa !57
  %18 = load ptr, ptr %15, align 8, !tbaa !59
  tail call void %17(ptr noundef %18)
  %19 = add i64 %.01220, -1
  %.not = icmp eq i64 %19, 0
  br i1 %.not, label %._crit_edge, label %.lr.ph, !llvm.loop !60

20:                                               ; preds = %._crit_edge
  %21 = load i64, ptr %13, align 8, !tbaa !62
  br label %11

22:                                               ; preds = %._crit_edge
  ret void
}